target datalayout = "e-m:e-p270:32:32-p271:32:32-p272:64:64-i64:64-i128:128-f80:128-n8:16:32:64-S128"
target triple = "x86_64-pc-linux-gnu"

%struct.pointf_s = type { double, double }
%struct.Site = type { %struct.pointf_s, i64, i32 }

; Function Attrs: nounwind uwtable
define internal i32 @scomp(ptr noundef %0, ptr noundef %1) #0 {
  %3 = alloca i32, align 4
  %4 = alloca ptr, align 8
  %5 = alloca ptr, align 8
  %6 = alloca ptr, align 8
  %7 = alloca ptr, align 8
  %8 = alloca i32, align 4
  store ptr %0, ptr %4, align 8, !tbaa !49
  store ptr %1, ptr %5, align 8, !tbaa !49
  call void @llvm.lifetime.start.p0(i64 8, ptr %6) #13
  %9 = load ptr, ptr %4, align 8, !tbaa !49
  %10 = load ptr, ptr %9, align 8, !tbaa !158
  store ptr %10, ptr %6, align 8, !tbaa !158
  call void @llvm.lifetime.start.p0(i64 8, ptr %7) #13
  %11 = load ptr, ptr %5, align 8, !tbaa !49
  %12 = load ptr, ptr %11, align 8, !tbaa !158
  store ptr %12, ptr %7, align 8, !tbaa !158
  %13 = load ptr, ptr %6, align 8, !tbaa !158
  %14 = getelementptr inbounds nuw %struct.Site, ptr %13, i32 0, i32 0
  %15 = getelementptr inbounds nuw %struct.pointf_s, ptr %14, i32 0, i32 1
  %16 = load double, ptr %15, align 8, !tbaa !161
  %17 = load ptr, ptr %7, align 8, !tbaa !158
  %18 = getelementptr inbounds nuw %struct.Site, ptr %17, i32 0, i32 0
  %19 = getelementptr inbounds nuw %struct.pointf_s, ptr %18, i32 0, i32 1
  %20 = load double, ptr %19, align 8, !tbaa !161
  %21 = fcmp olt double %16, %20
  br i1 %21, label %22, label %23

22:                                               ; preds = %2
  store i32 -1, ptr %3, align 4
  store i32 1, ptr %8, align 4
  br label %57

23:                                               ; preds = %2
  %24 = load ptr, ptr %6, align 8, !tbaa !158
  %25 = getelementptr inbounds nuw %struct.Site, ptr %24, i32 0, i32 0
  %26 = getelementptr inbounds nuw %struct.pointf_s, ptr %25, i32 0, i32 1
  %27 = load double, ptr %26, align 8, !tbaa !161
  %28 = load ptr, ptr %7, align 8, !tbaa !158
  %29 = getelementptr inbounds nuw %struct.Site, ptr %28, i32 0, i32 0
  %30 = getelementptr inbounds nuw %struct.pointf_s, ptr %29, i32 0, i32 1
  %31 = load double, ptr %30, align 8, !tbaa !161
  %32 = fcmp ogt double %27, %31
  br i1 %32, label %33, label %34

33:                                               ; preds = %23
  store i32 1, ptr %3, align 4
  store i32 1, ptr %8, align 4
  br label %57

34:                                               ; preds = %23
  %35 = load ptr, ptr %6, align 8, !tbaa !158
  %36 = getelementptr inbounds nuw %struct.Site, ptr %35, i32 0, i32 0
  %37 = getelementptr inbounds nuw %struct.pointf_s, ptr %36, i32 0, i32 0
  %38 = load double, ptr %37, align 8, !tbaa !160
  %39 = load ptr, ptr %7, align 8, !tbaa !158
  %40 = getelementptr inbounds nuw %struct.Site, ptr %39, i32 0, i32 0
  %41 = getelementptr inbounds nuw %struct.pointf_s, ptr %40, i32 0, i32 0
  %42 = load double, ptr %41, align 8, !tbaa !160
  %43 = fcmp olt double %38, %42
  br i1 %43, label %44, label %45

44:                                               ; preds = %34
  store i32 -1, ptr %3, align 4
  store i32 1, ptr %8, align 4
  br label %57

45:                                               ; preds = %34
  %46 = load ptr, ptr %6, align 8, !tbaa !158
  %47 = getelementptr inbounds nuw %struct.Site, ptr %46, i32 0, i32 0
  %48 = getelementptr inbounds nuw %struct.pointf_s, ptr %47, i32 0, i32 0
  %49 = load double, ptr %48, align 8, !tbaa !160
  %50 = load ptr, ptr %7, align 8, !tbaa !158
  %51 = getelementptr inbounds nuw %struct.Site, ptr %50, i32 0, i32 0
  %52 = getelementptr inbounds nuw %struct.pointf_s, ptr %51, i32 0, i32 0
  %53 = load double, ptr %52, align 8, !tbaa !160
  %54 = fcmp ogt double %49, %53
  br i1 %54, label %55, label %56

55:                                               ; preds = %45
  store i32 1, ptr %3, align 4
  store i32 1, ptr %8, align 4
  br label %57

56:                                               ; preds = %45
  store i32 0, ptr %3, align 4
  store i32 1, ptr %8, align 4
  br label %57

57:                                               ; preds = %56, %55, %44, %33, %22
  call void @llvm.lifetime.end.p0(i64 8, ptr %7) #13
  call void @llvm.lifetime.end.p0(i64 8, ptr %6) #13
  %58 = load i32, ptr %3, align 4
  ret i32 %58
}