; Function Attrs: mustprogress nofree norecurse nosync nounwind willreturn memory(read, inaccessiblemem: none) uwtable
define internal range(i32 -1, 2) i32 @scomp(ptr noundef readonly captures(none) %0, ptr noundef readonly captures(none) %1) #16 {
  %3 = load ptr, ptr %0, align 8, !tbaa !106
  %4 = load ptr, ptr %1, align 8, !tbaa !106
  %5 = getelementptr inbounds nuw i8, ptr %3, i64 8
  %6 = load double, ptr %5, align 8, !tbaa !110
  %7 = getelementptr inbounds nuw i8, ptr %4, i64 8
  %8 = load double, ptr %7, align 8, !tbaa !110
  %9 = fcmp olt double %6, %8
  br i1 %9, label %18, label %10

10:                                               ; preds = %2
  %11 = fcmp ogt double %6, %8
  br i1 %11, label %18, label %12

12:                                               ; preds = %10
  %13 = load double, ptr %3, align 8, !tbaa !108
  %14 = load double, ptr %4, align 8, !tbaa !108
  %15 = fcmp olt double %13, %14
  br i1 %15, label %18, label %16

16:                                               ; preds = %12
  %17 = fcmp ogt double %13, %14
  %. = zext i1 %17 to i32
  br label %18

18:                                               ; preds = %16, %12, %10, %2
  %.0 = phi i32 [ -1, %2 ], [ 1, %10 ], [ -1, %12 ], [ %., %16 ]
  ret i32 %.0
}